target datalayout = "e-m:e-p270:32:32-p271:32:32-p272:64:64-i64:64-i128:128-f80:128-n8:16:32:64-S128"
target triple = "x86_64-pc-linux-gnu"

%struct.sharedObjectsStruct = type { ptr, ptr, ptr, ptr, ptr, ptr, ptr, ptr, [4 x ptr], [4 x ptr], [4 x ptr], [4 x ptr], ptr, ptr, ptr, ptr, ptr, ptr, ptr, ptr, ptr, ptr, ptr, ptr, ptr, ptr, ptr, ptr, ptr, ptr, ptr, ptr, ptr, ptr, ptr, ptr, ptr, ptr, ptr, ptr, ptr, ptr, ptr, ptr, ptr, ptr, ptr, ptr, ptr, ptr, ptr, ptr, ptr, ptr, ptr, ptr, ptr, ptr, ptr, ptr, ptr, ptr, ptr, ptr, ptr, ptr, ptr, ptr, ptr, ptr, ptr, ptr, ptr, ptr, ptr, ptr, ptr, ptr, ptr, ptr, ptr, ptr, ptr, ptr, ptr, ptr, ptr, ptr, [10 x ptr], [10000 x ptr], [32 x ptr], [32 x ptr], [32 x ptr], [32 x ptr], ptr, ptr }
%struct.zskiplistNode = type { ptr, double, ptr, [0 x %struct.zskiplistLevel] }
%struct.zskiplistLevel = type { ptr, i64 }
%struct.zskiplist = type { ptr, ptr, i64, i32 }
%struct.zlexrangespec = type { ptr, ptr, i32, i32 }

@shared = external global %struct.sharedObjectsStruct, align 8

; Function Attrs: nounwind uwtable
define dso_local i32 @zslLexValueLteMax(ptr noundef %0, ptr noundef %1) #0 {
  %3 = alloca ptr, align 8
  %4 = alloca ptr, align 8
  store ptr %0, ptr %3, align 8, !tbaa !11
  store ptr %1, ptr %4, align 8, !tbaa !45
  %5 = load ptr, ptr %4, align 8, !tbaa !45
  %6 = getelementptr inbounds nuw %struct.zlexrangespec, ptr %5, i32 0, i32 3
  %7 = load i32, ptr %6, align 4, !tbaa !71
  %8 = icmp ne i32 %7, 0
  br i1 %8, label %9, label %17

9:                                                ; preds = %2
  %10 = load ptr, ptr %3, align 8, !tbaa !11
  %11 = load ptr, ptr %4, align 8, !tbaa !45
  %12 = getelementptr inbounds nuw %struct.zlexrangespec, ptr %11, i32 0, i32 1
  %13 = load ptr, ptr %12, align 8, !tbaa !72
  %14 = call i32 @sdscmplex(ptr noundef %10, ptr noundef %13)
  %15 = icmp slt i32 %14, 0
  %16 = zext i1 %15 to i32
  br label %25

17:                                               ; preds = %2
  %18 = load ptr, ptr %3, align 8, !tbaa !11
  %19 = load ptr, ptr %4, align 8, !tbaa !45
  %20 = getelementptr inbounds nuw %struct.zlexrangespec, ptr %19, i32 0, i32 1
  %21 = load ptr, ptr %20, align 8, !tbaa !72
  %22 = call i32 @sdscmplex(ptr noundef %18, ptr noundef %21)
  %23 = icmp sle i32 %22, 0
  %24 = zext i1 %23 to i32
  br label %25

25:                                               ; preds = %17, %9
  %26 = phi i32 [ %16, %9 ], [ %24, %17 ]
  ret i32 %26
}

; Function Attrs: nounwind uwtable
define dso_local i32 @zslLexValueGteMin(ptr noundef %0, ptr noundef %1) #0 {
  %3 = alloca ptr, align 8
  %4 = alloca ptr, align 8
  store ptr %0, ptr %3, align 8, !tbaa !11
  store ptr %1, ptr %4, align 8, !tbaa !45
  %5 = load ptr, ptr %4, align 8, !tbaa !45
  %6 = getelementptr inbounds nuw %struct.zlexrangespec, ptr %5, i32 0, i32 2
  %7 = load i32, ptr %6, align 8, !tbaa !68
  %8 = icmp ne i32 %7, 0
  br i1 %8, label %9, label %17

9:                                                ; preds = %2
  %10 = load ptr, ptr %3, align 8, !tbaa !11
  %11 = load ptr, ptr %4, align 8, !tbaa !45
  %12 = getelementptr inbounds nuw %struct.zlexrangespec, ptr %11, i32 0, i32 0
  %13 = load ptr, ptr %12, align 8, !tbaa !70
  %14 = call i32 @sdscmplex(ptr noundef %10, ptr noundef %13)
  %15 = icmp sgt i32 %14, 0
  %16 = zext i1 %15 to i32
  br label %25

17:                                               ; preds = %2
  %18 = load ptr, ptr %3, align 8, !tbaa !11
  %19 = load ptr, ptr %4, align 8, !tbaa !45
  %20 = getelementptr inbounds nuw %struct.zlexrangespec, ptr %19, i32 0, i32 0
  %21 = load ptr, ptr %20, align 8, !tbaa !70
  %22 = call i32 @sdscmplex(ptr noundef %18, ptr noundef %21)
  %23 = icmp sge i32 %22, 0
  %24 = zext i1 %23 to i32
  br label %25

25:                                               ; preds = %17, %9
  %26 = phi i32 [ %16, %9 ], [ %24, %17 ]
  ret i32 %26
}

; Function Attrs: nounwind uwtable
define dso_local i32 @sdscmplex(ptr noundef %0, ptr noundef %1) #0 {
  %3 = alloca i32, align 4
  %4 = alloca ptr, align 8
  %5 = alloca ptr, align 8
  store ptr %0, ptr %4, align 8, !tbaa !11
  store ptr %1, ptr %5, align 8, !tbaa !11
  %6 = load ptr, ptr %4, align 8, !tbaa !11
  %7 = load ptr, ptr %5, align 8, !tbaa !11
  %8 = icmp eq ptr %6, %7
  br i1 %8, label %9, label %10

9:                                                ; preds = %2
  store i32 0, ptr %3, align 4
  br label %32

10:                                               ; preds = %2
  %11 = load ptr, ptr %4, align 8, !tbaa !11
  %12 = load ptr, ptr getelementptr inbounds nuw (%struct.sharedObjectsStruct, ptr @shared, i32 0, i32 94), align 8, !tbaa !89
  %13 = icmp eq ptr %11, %12
  br i1 %13, label %18, label %14

14:                                               ; preds = %10
  %15 = load ptr, ptr %5, align 8, !tbaa !11
  %16 = load ptr, ptr getelementptr inbounds nuw (%struct.sharedObjectsStruct, ptr @shared, i32 0, i32 95), align 8, !tbaa !87
  %17 = icmp eq ptr %15, %16
  br i1 %17, label %18, label %19

18:                                               ; preds = %14, %10
  store i32 -1, ptr %3, align 4
  br label %32

19:                                               ; preds = %14
  %20 = load ptr, ptr %4, align 8, !tbaa !11
  %21 = load ptr, ptr getelementptr inbounds nuw (%struct.sharedObjectsStruct, ptr @shared, i32 0, i32 95), align 8, !tbaa !87
  %22 = icmp eq ptr %20, %21
  br i1 %22, label %27, label %23

23:                                               ; preds = %19
  %24 = load ptr, ptr %5, align 8, !tbaa !11
  %25 = load ptr, ptr getelementptr inbounds nuw (%struct.sharedObjectsStruct, ptr @shared, i32 0, i32 94), align 8, !tbaa !89
  %26 = icmp eq ptr %24, %25
  br i1 %26, label %27, label %28

27:                                               ; preds = %23, %19
  store i32 1, ptr %3, align 4
  br label %32

28:                                               ; preds = %23
  %29 = load ptr, ptr %4, align 8, !tbaa !11
  %30 = load ptr, ptr %5, align 8, !tbaa !11
  %31 = call i32 @sdscmp(ptr noundef %29, ptr noundef %30)
  store i32 %31, ptr %3, align 4
  br label %32

32:                                               ; preds = %28, %27, %18, %9
  %33 = load i32, ptr %3, align 4
  ret i32 %33
}

; Function Attrs: nounwind uwtable
define dso_local i32 @zslIsInLexRange(ptr noundef %0, ptr noundef %1) #0 {
  %3 = alloca i32, align 4
  %4 = alloca ptr, align 8
  %5 = alloca ptr, align 8
  %6 = alloca ptr, align 8
  %7 = alloca i32, align 4
  %8 = alloca i32, align 4
  store ptr %0, ptr %4, align 8, !tbaa !16
  store ptr %1, ptr %5, align 8, !tbaa !45
  call void @llvm.lifetime.start.p0(i64 8, ptr %6) #12
  call void @llvm.lifetime.start.p0(i64 4, ptr %7) #12
  %9 = load ptr, ptr %5, align 8, !tbaa !45
  %10 = getelementptr inbounds nuw %struct.zlexrangespec, ptr %9, i32 0, i32 0
  %11 = load ptr, ptr %10, align 8, !tbaa !70
  %12 = load ptr, ptr %5, align 8, !tbaa !45
  %13 = getelementptr inbounds nuw %struct.zlexrangespec, ptr %12, i32 0, i32 1
  %14 = load ptr, ptr %13, align 8, !tbaa !72
  %15 = call i32 @sdscmplex(ptr noundef %11, ptr noundef %14)
  store i32 %15, ptr %7, align 4, !tbaa !5
  %16 = load i32, ptr %7, align 4, !tbaa !5
  %17 = icmp sgt i32 %16, 0
  br i1 %17, label %31, label %18

18:                                               ; preds = %2
  %19 = load i32, ptr %7, align 4, !tbaa !5
  %20 = icmp eq i32 %19, 0
  br i1 %20, label %21, label %32

21:                                               ; preds = %18
  %22 = load ptr, ptr %5, align 8, !tbaa !45
  %23 = getelementptr inbounds nuw %struct.zlexrangespec, ptr %22, i32 0, i32 2
  %24 = load i32, ptr %23, align 8, !tbaa !68
  %25 = icmp ne i32 %24, 0
  br i1 %25, label %31, label %26

26:                                               ; preds = %21
  %27 = load ptr, ptr %5, align 8, !tbaa !45
  %28 = getelementptr inbounds nuw %struct.zlexrangespec, ptr %27, i32 0, i32 3
  %29 = load i32, ptr %28, align 4, !tbaa !71
  %30 = icmp ne i32 %29, 0
  br i1 %30, label %31, label %32

31:                                               ; preds = %26, %21, %2
  store i32 0, ptr %3, align 4
  store i32 1, ptr %8, align 4
  br label %65

32:                                               ; preds = %26, %18
  %33 = load ptr, ptr %4, align 8, !tbaa !16
  %34 = getelementptr inbounds nuw %struct.zskiplist, ptr %33, i32 0, i32 1
  %35 = load ptr, ptr %34, align 8, !tbaa !28
  store ptr %35, ptr %6, align 8, !tbaa !14
  %36 = load ptr, ptr %6, align 8, !tbaa !14
  %37 = icmp eq ptr %36, null
  br i1 %37, label %45, label %38

38:                                               ; preds = %32
  %39 = load ptr, ptr %6, align 8, !tbaa !14
  %40 = getelementptr inbounds nuw %struct.zskiplistNode, ptr %39, i32 0, i32 0
  %41 = load ptr, ptr %40, align 8, !tbaa !11
  %42 = load ptr, ptr %5, align 8, !tbaa !45
  %43 = call i32 @zslLexValueGteMin(ptr noundef %41, ptr noundef %42)
  %44 = icmp ne i32 %43, 0
  br i1 %44, label %46, label %45

45:                                               ; preds = %38, %32
  store i32 0, ptr %3, align 4
  store i32 1, ptr %8, align 4
  br label %65

46:                                               ; preds = %38
  %47 = load ptr, ptr %4, align 8, !tbaa !16
  %48 = getelementptr inbounds nuw %struct.zskiplist, ptr %47, i32 0, i32 0
  %49 = load ptr, ptr %48, align 8, !tbaa !22
  %50 = getelementptr inbounds nuw %struct.zskiplistNode, ptr %49, i32 0, i32 3
  %51 = getelementptr inbounds [0 x %struct.zskiplistLevel], ptr %50, i64 0, i64 0
  %52 = getelementptr inbounds nuw %struct.zskiplistLevel, ptr %51, i32 0, i32 0
  %53 = load ptr, ptr %52, align 8, !tbaa !23
  store ptr %53, ptr %6, align 8, !tbaa !14
  %54 = load ptr, ptr %6, align 8, !tbaa !14
  %55 = icmp eq ptr %54, null
  br i1 %55, label %63, label %56

56:                                               ; preds = %46
  %57 = load ptr, ptr %6, align 8, !tbaa !14
  %58 = getelementptr inbounds nuw %struct.zskiplistNode, ptr %57, i32 0, i32 0
  %59 = load ptr, ptr %58, align 8, !tbaa !11
  %60 = load ptr, ptr %5, align 8, !tbaa !45
  %61 = call i32 @zslLexValueLteMax(ptr noundef %59, ptr noundef %60)
  %62 = icmp ne i32 %61, 0
  br i1 %62, label %64, label %63

63:                                               ; preds = %56, %46
  store i32 0, ptr %3, align 4
  store i32 1, ptr %8, align 4
  br label %65

64:                                               ; preds = %56
  store i32 1, ptr %3, align 4
  store i32 1, ptr %8, align 4
  br label %65

65:                                               ; preds = %64, %63, %45, %31
  call void @llvm.lifetime.end.p0(i64 4, ptr %7) #12
  call void @llvm.lifetime.end.p0(i64 8, ptr %6) #12
  %66 = load i32, ptr %3, align 4
  ret i32 %66
}