; Function Attrs: nounwind uwtable
define dso_local range(i32 0, 2) i32 @zslIsInLexRange(ptr noundef readonly captures(none) %0, ptr noundef readonly captures(none) %1) local_unnamed_addr #0 {
  %3 = load ptr, ptr %1, align 8, !tbaa !60
  %4 = getelementptr inbounds nuw i8, ptr %1, i64 8
  %5 = load ptr, ptr %4, align 8, !tbaa !68
  %6 = icmp eq ptr %3, %5
  br i1 %6, label %sdscmplex.exit.thread.thread40, label %7

7:                                                ; preds = %2
  %8 = load ptr, ptr getelementptr inbounds nuw (i8, ptr @shared, i64 81904), align 8, !tbaa !61
  %9 = icmp eq ptr %3, %8
  br i1 %9, label %sdscmplex.exit.thread.thread, label %10

10:                                               ; preds = %7
  %11 = load ptr, ptr getelementptr inbounds nuw (i8, ptr @shared, i64 81912), align 8, !tbaa !64
  %12 = icmp eq ptr %5, %11
  br i1 %12, label %sdscmplex.exit.thread.thread, label %13

13:                                               ; preds = %10
  %14 = icmp eq ptr %3, %11
  %15 = icmp eq ptr %5, %8
  %or.cond.i = or i1 %15, %14
  br i1 %or.cond.i, label %sdscmplex.exit.thread25, label %sdscmplex.exit

sdscmplex.exit:                                   ; preds = %13
  %16 = tail call i32 @sdscmp(ptr noundef %3, ptr noundef %5) #18
  %17 = icmp sgt i32 %16, 0
  br i1 %17, label %sdscmplex.exit.thread25, label %sdscmplex.exit.thread

sdscmplex.exit.thread:                            ; preds = %sdscmplex.exit
  %18 = icmp eq i32 %16, 0
  br i1 %18, label %sdscmplex.exit.thread.thread40, label %sdscmplex.exit.thread.thread

sdscmplex.exit.thread.thread40:                   ; preds = %2, %sdscmplex.exit.thread
  %19 = getelementptr inbounds nuw i8, ptr %1, i64 16
  %20 = load i32, ptr %19, align 8, !tbaa !58
  %.not = icmp eq i32 %20, 0
  br i1 %.not, label %21, label %sdscmplex.exit.thread25

21:                                               ; preds = %sdscmplex.exit.thread.thread40
  %22 = getelementptr inbounds nuw i8, ptr %1, i64 20
  %23 = load i32, ptr %22, align 4, !tbaa !67
  %.not17 = icmp eq i32 %23, 0
  br i1 %.not17, label %sdscmplex.exit.thread.thread, label %sdscmplex.exit.thread25

sdscmplex.exit.thread.thread:                     ; preds = %10, %7, %21, %sdscmplex.exit.thread
  %24 = getelementptr inbounds nuw i8, ptr %0, i64 8
  %25 = load ptr, ptr %24, align 8, !tbaa !19
  %26 = icmp eq ptr %25, null
  br i1 %26, label %sdscmplex.exit.thread25, label %27

27:                                               ; preds = %sdscmplex.exit.thread.thread
  %28 = load ptr, ptr %25, align 8, !tbaa !9
  %29 = getelementptr inbounds nuw i8, ptr %1, i64 16
  %30 = load i32, ptr %29, align 8, !tbaa !58
  %.not.i = icmp eq i32 %30, 0
  %31 = load ptr, ptr %1, align 8, !tbaa !60
  %32 = icmp eq ptr %28, %31
  br i1 %.not.i, label %43, label %33

33:                                               ; preds = %27
  br i1 %32, label %sdscmplex.exit.thread25, label %34

34:                                               ; preds = %33
  %35 = load ptr, ptr getelementptr inbounds nuw (i8, ptr @shared, i64 81904), align 8, !tbaa !61
  %36 = icmp eq ptr %28, %35
  br i1 %36, label %sdscmplex.exit.thread25, label %37

37:                                               ; preds = %34
  %38 = load ptr, ptr getelementptr inbounds nuw (i8, ptr @shared, i64 81912), align 8, !tbaa !64
  %39 = icmp eq ptr %31, %38
  br i1 %39, label %sdscmplex.exit.thread25, label %40

40:                                               ; preds = %37
  %41 = icmp eq ptr %28, %38
  %42 = icmp eq ptr %31, %35
  %or.cond.i.i = or i1 %42, %41
  br i1 %or.cond.i.i, label %zslLexValueGteMin.exit.thread30, label %zslLexValueGteMin.exit

43:                                               ; preds = %27
  br i1 %32, label %zslLexValueGteMin.exit.thread30, label %44

44:                                               ; preds = %43
  %45 = load ptr, ptr getelementptr inbounds nuw (i8, ptr @shared, i64 81904), align 8, !tbaa !61
  %46 = icmp eq ptr %28, %45
  br i1 %46, label %sdscmplex.exit.thread25, label %47

47:                                               ; preds = %44
  %48 = load ptr, ptr getelementptr inbounds nuw (i8, ptr @shared, i64 81912), align 8, !tbaa !64
  %49 = icmp eq ptr %31, %48
  br i1 %49, label %sdscmplex.exit.thread25, label %50

50:                                               ; preds = %47
  %51 = icmp eq ptr %28, %48
  %52 = icmp eq ptr %31, %45
  %or.cond.i5.i = or i1 %52, %51
  br i1 %or.cond.i5.i, label %zslLexValueGteMin.exit.thread30, label %zslLexValueGteMin.exit

zslLexValueGteMin.exit:                           ; preds = %40, %50
  %.sink8.i = phi i32 [ 0, %40 ], [ -1, %50 ]
  %53 = tail call i32 @sdscmp(ptr noundef %28, ptr noundef %31) #18
  %.not42 = icmp sgt i32 %53, %.sink8.i
  br i1 %.not42, label %zslLexValueGteMin.exit.thread30, label %sdscmplex.exit.thread25

zslLexValueGteMin.exit.thread30:                  ; preds = %50, %43, %40, %zslLexValueGteMin.exit
  %54 = load ptr, ptr %0, align 8, !tbaa !18
  %55 = getelementptr inbounds nuw i8, ptr %54, i64 24
  %56 = load ptr, ptr %55, align 8, !tbaa !20
  %57 = icmp eq ptr %56, null
  br i1 %57, label %sdscmplex.exit.thread25, label %58

58:                                               ; preds = %zslLexValueGteMin.exit.thread30
  %59 = load ptr, ptr %56, align 8, !tbaa !9
  %60 = getelementptr inbounds nuw i8, ptr %1, i64 20
  %61 = load i32, ptr %60, align 4, !tbaa !67
  %.not.i20 = icmp eq i32 %61, 0
  %62 = load ptr, ptr %4, align 8, !tbaa !68
  %63 = icmp eq ptr %59, %62
  br i1 %.not.i20, label %77, label %64

64:                                               ; preds = %58
  br i1 %63, label %zslLexValueLteMax.exit.thread36, label %65

65:                                               ; preds = %64
  %66 = load ptr, ptr getelementptr inbounds nuw (i8, ptr @shared, i64 81904), align 8, !tbaa !61
  %67 = icmp eq ptr %59, %66
  br i1 %67, label %sdscmplex.exit.thread25, label %68

68:                                               ; preds = %65
  %69 = load ptr, ptr getelementptr inbounds nuw (i8, ptr @shared, i64 81912), align 8, !tbaa !64
  %70 = icmp eq ptr %62, %69
  br i1 %70, label %sdscmplex.exit.thread25, label %71

71:                                               ; preds = %68
  %72 = icmp eq ptr %59, %69
  %73 = icmp eq ptr %62, %66
  %or.cond.i.i21 = or i1 %73, %72
  br i1 %or.cond.i.i21, label %zslLexValueLteMax.exit.thread36, label %74

74:                                               ; preds = %71
  %75 = tail call i32 @sdscmp(ptr noundef %59, ptr noundef %62) #18
  %.fr = freeze i32 %75
  %76 = icmp sgt i32 %.fr, -1
  br i1 %76, label %zslLexValueLteMax.exit.thread36, label %sdscmplex.exit.thread25

77:                                               ; preds = %58
  br i1 %63, label %sdscmplex.exit.thread25, label %78

78:                                               ; preds = %77
  %79 = load ptr, ptr getelementptr inbounds nuw (i8, ptr @shared, i64 81904), align 8, !tbaa !61
  %80 = icmp eq ptr %59, %79
  br i1 %80, label %sdscmplex.exit.thread25, label %81

81:                                               ; preds = %78
  %82 = load ptr, ptr getelementptr inbounds nuw (i8, ptr @shared, i64 81912), align 8, !tbaa !64
  %83 = icmp eq ptr %62, %82
  br i1 %83, label %sdscmplex.exit.thread25, label %84

84:                                               ; preds = %81
  %85 = icmp eq ptr %59, %82
  %86 = icmp eq ptr %62, %79
  %or.cond.i5.i22 = or i1 %86, %85
  br i1 %or.cond.i5.i22, label %zslLexValueLteMax.exit.thread36, label %zslLexValueLteMax.exit

zslLexValueLteMax.exit:                           ; preds = %84
  %87 = tail call i32 @sdscmp(ptr noundef %59, ptr noundef %62) #18
  %.fr44 = freeze i32 %87
  %88 = icmp sgt i32 %.fr44, 0
  br i1 %88, label %zslLexValueLteMax.exit.thread36, label %sdscmplex.exit.thread25

zslLexValueLteMax.exit.thread36:                  ; preds = %74, %84, %71, %64, %zslLexValueLteMax.exit
  br label %sdscmplex.exit.thread25

sdscmplex.exit.thread25:                          ; preds = %74, %78, %81, %77, %65, %68, %44, %47, %34, %37, %33, %13, %zslLexValueLteMax.exit.thread36, %zslLexValueLteMax.exit, %zslLexValueGteMin.exit.thread30, %sdscmplex.exit.thread.thread, %zslLexValueGteMin.exit, %sdscmplex.exit, %sdscmplex.exit.thread.thread40, %21
  %.0 = phi i32 [ 0, %21 ], [ 0, %sdscmplex.exit.thread.thread40 ], [ 0, %sdscmplex.exit ], [ 0, %zslLexValueGteMin.exit ], [ 0, %sdscmplex.exit.thread.thread ], [ 0, %zslLexValueGteMin.exit.thread30 ], [ 0, %zslLexValueLteMax.exit.thread36 ], [ 1, %zslLexValueLteMax.exit ], [ 0, %13 ], [ 0, %33 ], [ 0, %37 ], [ 0, %34 ], [ 0, %47 ], [ 0, %44 ], [ 1, %68 ], [ 1, %65 ], [ 1, %77 ], [ 1, %81 ], [ 1, %78 ], [ 1, %74 ]
  ret i32 %.0
}